; Function Attrs: nounwind uwtable
define internal noundef ptr @element_text_getter(ptr noundef captures(none) %0, ptr readnone captures(none) %1) #0 {
  %3 = getelementptr inbounds nuw i8, ptr %0, i64 24
  %4 = load ptr, ptr %3, align 8, !tbaa !45
  %5 = ptrtoint ptr %4 to i64
  %6 = and i64 %5, 1
  %.not.i = icmp eq i64 %6, 0
  br i1 %.not.i, label %element_get_text.exit, label %7

7:                                                ; preds = %2
  %8 = and i64 %5, -2
  %9 = inttoptr i64 %8 to ptr
  %10 = getelementptr i8, ptr %9, i64 8
  %.val.i = load ptr, ptr %10, align 8, !tbaa !25
  %.not25.i = icmp eq ptr %.val.i, @PyList_Type
  br i1 %.not25.i, label %11, label %element_get_text.exit.thread

11:                                               ; preds = %7
  %12 = tail call ptr @Py_GetConstant(i32 noundef 7) #12
  %.not.i19.i = icmp eq ptr %12, null
  br i1 %.not.i19.i, label %_Py_XNewRef.exit, label %13

13:                                               ; preds = %11
  %14 = tail call ptr @PyUnicode_Join(ptr noundef nonnull %12, ptr noundef nonnull %9) #12
  %15 = load i32, ptr %12, align 8, !tbaa !21
  %.not.i.i.i = icmp sgt i32 %15, -1
  br i1 %.not.i.i.i, label %16, label %list_join.exit.i

16:                                               ; preds = %13
  %17 = add nsw i32 %15, -1
  store i32 %17, ptr %12, align 8, !tbaa !21
  %18 = icmp eq i32 %17, 0
  br i1 %18, label %19, label %list_join.exit.i

19:                                               ; preds = %16
  tail call void @_Py_Dealloc(ptr noundef nonnull %12) #12
  br label %list_join.exit.i

list_join.exit.i:                                 ; preds = %19, %16, %13
  %.not18.not.i = icmp eq ptr %14, null
  br i1 %.not18.not.i, label %_Py_XNewRef.exit, label %20

20:                                               ; preds = %list_join.exit.i
  store ptr %14, ptr %3, align 8, !tbaa !45
  %21 = load i32, ptr %9, align 8, !tbaa !21
  %.not.i.i = icmp sgt i32 %21, -1
  br i1 %.not.i.i, label %22, label %element_get_text.exit.thread

22:                                               ; preds = %20
  %23 = add nsw i32 %21, -1
  store i32 %23, ptr %9, align 8, !tbaa !21
  %24 = icmp eq i32 %23, 0
  br i1 %24, label %25, label %element_get_text.exit.thread

25:                                               ; preds = %22
  tail call void @_Py_Dealloc(ptr noundef nonnull %9) #12
  br label %element_get_text.exit.thread

element_get_text.exit:                            ; preds = %2
  %.not.i.i3 = icmp eq ptr %4, null
  br i1 %.not.i.i3, label %_Py_XNewRef.exit, label %element_get_text.exit.thread

element_get_text.exit.thread:                     ; preds = %25, %22, %20, %7, %element_get_text.exit
  %.1.i6 = phi ptr [ %4, %element_get_text.exit ], [ %14, %25 ], [ %14, %22 ], [ %14, %20 ], [ %9, %7 ]
  %26 = load i32, ptr %.1.i6, align 8, !tbaa !21
  %27 = icmp slt i32 %26, 0
  br i1 %27, label %_Py_XNewRef.exit, label %28

28:                                               ; preds = %element_get_text.exit.thread
  %29 = add nuw i32 %26, 1
  store i32 %29, ptr %.1.i6, align 8, !tbaa !21
  br label %_Py_XNewRef.exit

_Py_XNewRef.exit:                                 ; preds = %11, %list_join.exit.i, %element_get_text.exit, %element_get_text.exit.thread, %28
  %.1.i7 = phi ptr [ null, %element_get_text.exit ], [ %.1.i6, %element_get_text.exit.thread ], [ %.1.i6, %28 ], [ null, %list_join.exit.i ], [ null, %11 ]
  ret ptr %.1.i7
}